target datalayout = "e-m:e-p270:32:32-p271:32:32-p272:64:64-i64:64-i128:128-f80:128-n8:16:32:64-S128"
target triple = "x86_64-pc-linux-gnu"

@.str = private unnamed_addr constant [33 x i8] c"../openssl/crypto/bio/bio_addr.c\00", align 1
@__func__.BIO_parse_hostserv = private unnamed_addr constant [19 x i8] c"BIO_parse_hostserv\00", align 1

; Function Attrs: nounwind uwtable
define i32 @BIO_parse_hostserv(ptr noundef %0, ptr noundef %1, ptr noundef %2, i32 noundef %3) #0 {
  %5 = alloca i32, align 4
  %6 = alloca ptr, align 8
  %7 = alloca ptr, align 8
  %8 = alloca ptr, align 8
  %9 = alloca i32, align 4
  %10 = alloca ptr, align 8
  %11 = alloca i64, align 8
  %12 = alloca ptr, align 8
  %13 = alloca i64, align 8
  %14 = alloca ptr, align 8
  %15 = alloca i32, align 4
  store ptr %0, ptr %6, align 8, !tbaa !24
  store ptr %1, ptr %7, align 8, !tbaa !26
  store ptr %2, ptr %8, align 8, !tbaa !26
  store i32 %3, ptr %9, align 4, !tbaa !14
  call void @llvm.lifetime.start.p0(i64 8, ptr %10) #9
  store ptr null, ptr %10, align 8, !tbaa !24
  call void @llvm.lifetime.start.p0(i64 8, ptr %11) #9
  store i64 0, ptr %11, align 8, !tbaa !17
  call void @llvm.lifetime.start.p0(i64 8, ptr %12) #9
  store ptr null, ptr %12, align 8, !tbaa !24
  call void @llvm.lifetime.start.p0(i64 8, ptr %13) #9
  store i64 0, ptr %13, align 8, !tbaa !17
  %16 = load ptr, ptr %6, align 8, !tbaa !24
  %17 = load i8, ptr %16, align 1, !tbaa !8
  %18 = sext i8 %17 to i32
  %19 = icmp eq i32 %18, 91
  br i1 %19, label %20, label %53

20:                                               ; preds = %4
  %21 = load ptr, ptr %6, align 8, !tbaa !24
  %22 = call ptr @strchr(ptr noundef %21, i32 noundef 93) #10
  store ptr %22, ptr %12, align 8, !tbaa !24
  %23 = icmp eq ptr %22, null
  br i1 %23, label %24, label %25

24:                                               ; preds = %20
  br label %174

25:                                               ; preds = %20
  %26 = load ptr, ptr %6, align 8, !tbaa !24
  %27 = getelementptr inbounds i8, ptr %26, i64 1
  store ptr %27, ptr %10, align 8, !tbaa !24
  %28 = load ptr, ptr %12, align 8, !tbaa !24
  %29 = load ptr, ptr %10, align 8, !tbaa !24
  %30 = ptrtoint ptr %28 to i64
  %31 = ptrtoint ptr %29 to i64
  %32 = sub i64 %30, %31
  store i64 %32, ptr %11, align 8, !tbaa !17
  %33 = load ptr, ptr %12, align 8, !tbaa !24
  %34 = getelementptr inbounds nuw i8, ptr %33, i32 1
  store ptr %34, ptr %12, align 8, !tbaa !24
  %35 = load ptr, ptr %12, align 8, !tbaa !24
  %36 = load i8, ptr %35, align 1, !tbaa !8
  %37 = sext i8 %36 to i32
  %38 = icmp eq i32 %37, 0
  br i1 %38, label %39, label %40

39:                                               ; preds = %25
  store ptr null, ptr %12, align 8, !tbaa !24
  br label %52

40:                                               ; preds = %25
  %41 = load ptr, ptr %12, align 8, !tbaa !24
  %42 = load i8, ptr %41, align 1, !tbaa !8
  %43 = sext i8 %42 to i32
  %44 = icmp ne i32 %43, 58
  br i1 %44, label %45, label %46

45:                                               ; preds = %40
  br label %174

46:                                               ; preds = %40
  %47 = load ptr, ptr %12, align 8, !tbaa !24
  %48 = getelementptr inbounds nuw i8, ptr %47, i32 1
  store ptr %48, ptr %12, align 8, !tbaa !24
  %49 = load ptr, ptr %12, align 8, !tbaa !24
  %50 = call i64 @strlen(ptr noundef %49) #10
  store i64 %50, ptr %13, align 8, !tbaa !17
  br label %51

51:                                               ; preds = %46
  br label %52

52:                                               ; preds = %51, %39
  br label %92

53:                                               ; preds = %4
  call void @llvm.lifetime.start.p0(i64 8, ptr %14) #9
  %54 = load ptr, ptr %6, align 8, !tbaa !24
  %55 = call ptr @strrchr(ptr noundef %54, i32 noundef 58) #10
  store ptr %55, ptr %14, align 8, !tbaa !24
  %56 = load ptr, ptr %6, align 8, !tbaa !24
  %57 = call ptr @strchr(ptr noundef %56, i32 noundef 58) #10
  store ptr %57, ptr %12, align 8, !tbaa !24
  %58 = load ptr, ptr %12, align 8, !tbaa !24
  %59 = load ptr, ptr %14, align 8, !tbaa !24
  %60 = icmp ne ptr %58, %59
  br i1 %60, label %61, label %62

61:                                               ; preds = %53
  store i32 3, ptr %15, align 4
  br label %89

62:                                               ; preds = %53
  %63 = load ptr, ptr %12, align 8, !tbaa !24
  %64 = icmp ne ptr %63, null
  br i1 %64, label %65, label %76

65:                                               ; preds = %62
  %66 = load ptr, ptr %6, align 8, !tbaa !24
  store ptr %66, ptr %10, align 8, !tbaa !24
  %67 = load ptr, ptr %12, align 8, !tbaa !24
  %68 = load ptr, ptr %10, align 8, !tbaa !24
  %69 = ptrtoint ptr %67 to i64
  %70 = ptrtoint ptr %68 to i64
  %71 = sub i64 %69, %70
  store i64 %71, ptr %11, align 8, !tbaa !17
  %72 = load ptr, ptr %12, align 8, !tbaa !24
  %73 = getelementptr inbounds nuw i8, ptr %72, i32 1
  store ptr %73, ptr %12, align 8, !tbaa !24
  %74 = load ptr, ptr %12, align 8, !tbaa !24
  %75 = call i64 @strlen(ptr noundef %74) #10
  store i64 %75, ptr %13, align 8, !tbaa !17
  br label %88

76:                                               ; preds = %62
  %77 = load i32, ptr %9, align 4, !tbaa !14
  %78 = icmp eq i32 %77, 0
  br i1 %78, label %79, label %83

79:                                               ; preds = %76
  %80 = load ptr, ptr %6, align 8, !tbaa !24
  store ptr %80, ptr %10, align 8, !tbaa !24
  %81 = load ptr, ptr %10, align 8, !tbaa !24
  %82 = call i64 @strlen(ptr noundef %81) #10
  store i64 %82, ptr %11, align 8, !tbaa !17
  br label %87

83:                                               ; preds = %76
  %84 = load ptr, ptr %6, align 8, !tbaa !24
  store ptr %84, ptr %12, align 8, !tbaa !24
  %85 = load ptr, ptr %12, align 8, !tbaa !24
  %86 = call i64 @strlen(ptr noundef %85) #10
  store i64 %86, ptr %13, align 8, !tbaa !17
  br label %87

87:                                               ; preds = %83, %79
  br label %88

88:                                               ; preds = %87, %65
  store i32 0, ptr %15, align 4
  br label %89

89:                                               ; preds = %61, %88
  call void @llvm.lifetime.end.p0(i64 8, ptr %14) #9
  %90 = load i32, ptr %15, align 4
  switch i32 %90, label %175 [
    i32 0, label %91
    i32 3, label %173
  ]

91:                                               ; preds = %89
  br label %92

92:                                               ; preds = %91, %52
  %93 = load ptr, ptr %12, align 8, !tbaa !24
  %94 = icmp ne ptr %93, null
  br i1 %94, label %95, label %100

95:                                               ; preds = %92
  %96 = load ptr, ptr %12, align 8, !tbaa !24
  %97 = call ptr @strchr(ptr noundef %96, i32 noundef 58) #10
  %98 = icmp ne ptr %97, null
  br i1 %98, label %99, label %100

99:                                               ; preds = %95
  br label %174

100:                                              ; preds = %95, %92
  %101 = load ptr, ptr %10, align 8, !tbaa !24
  %102 = icmp ne ptr %101, null
  br i1 %102, label %103, label %131

103:                                              ; preds = %100
  %104 = load ptr, ptr %7, align 8, !tbaa !26
  %105 = icmp ne ptr %104, null
  br i1 %105, label %106, label %131

106:                                              ; preds = %103
  %107 = load i64, ptr %11, align 8, !tbaa !17
  %108 = icmp eq i64 %107, 0
  br i1 %108, label %118, label %109

109:                                              ; preds = %106
  %110 = load i64, ptr %11, align 8, !tbaa !17
  %111 = icmp eq i64 %110, 1
  br i1 %111, label %112, label %120

112:                                              ; preds = %109
  %113 = load ptr, ptr %10, align 8, !tbaa !24
  %114 = getelementptr inbounds i8, ptr %113, i64 0
  %115 = load i8, ptr %114, align 1, !tbaa !8
  %116 = sext i8 %115 to i32
  %117 = icmp eq i32 %116, 42
  br i1 %117, label %118, label %120

118:                                              ; preds = %112, %106
  %119 = load ptr, ptr %7, align 8, !tbaa !26
  store ptr null, ptr %119, align 8, !tbaa !24
  br label %130

120:                                              ; preds = %112, %109
  %121 = load ptr, ptr %10, align 8, !tbaa !24
  %122 = load i64, ptr %11, align 8, !tbaa !17
  %123 = call noalias ptr @CRYPTO_strndup(ptr noundef %121, i64 noundef %122, ptr noundef @.str, i32 noundef 563)
  %124 = load ptr, ptr %7, align 8, !tbaa !26
  store ptr %123, ptr %124, align 8, !tbaa !24
  %125 = load ptr, ptr %7, align 8, !tbaa !26
  %126 = load ptr, ptr %125, align 8, !tbaa !24
  %127 = icmp eq ptr %126, null
  br i1 %127, label %128, label %129

128:                                              ; preds = %120
  store i32 0, ptr %5, align 4
  store i32 1, ptr %15, align 4
  br label %175

129:                                              ; preds = %120
  br label %130

130:                                              ; preds = %129, %118
  br label %131

131:                                              ; preds = %130, %103, %100
  %132 = load ptr, ptr %12, align 8, !tbaa !24
  %133 = icmp ne ptr %132, null
  br i1 %133, label %134, label %172

134:                                              ; preds = %131
  %135 = load ptr, ptr %8, align 8, !tbaa !26
  %136 = icmp ne ptr %135, null
  br i1 %136, label %137, label %172

137:                                              ; preds = %134
  %138 = load i64, ptr %13, align 8, !tbaa !17
  %139 = icmp eq i64 %138, 0
  br i1 %139, label %149, label %140

140:                                              ; preds = %137
  %141 = load i64, ptr %13, align 8, !tbaa !17
  %142 = icmp eq i64 %141, 1
  br i1 %142, label %143, label %151

143:                                              ; preds = %140
  %144 = load ptr, ptr %12, align 8, !tbaa !24
  %145 = getelementptr inbounds i8, ptr %144, i64 0
  %146 = load i8, ptr %145, align 1, !tbaa !8
  %147 = sext i8 %146 to i32
  %148 = icmp eq i32 %147, 42
  br i1 %148, label %149, label %151

149:                                              ; preds = %143, %137
  %150 = load ptr, ptr %8, align 8, !tbaa !26
  store ptr null, ptr %150, align 8, !tbaa !24
  br label %171

151:                                              ; preds = %143, %140
  %152 = load ptr, ptr %12, align 8, !tbaa !24
  %153 = load i64, ptr %13, align 8, !tbaa !17
  %154 = call noalias ptr @CRYPTO_strndup(ptr noundef %152, i64 noundef %153, ptr noundef @.str, i32 noundef 573)
  %155 = load ptr, ptr %8, align 8, !tbaa !26
  store ptr %154, ptr %155, align 8, !tbaa !24
  %156 = load ptr, ptr %8, align 8, !tbaa !26
  %157 = load ptr, ptr %156, align 8, !tbaa !24
  %158 = icmp eq ptr %157, null
  br i1 %158, label %159, label %170

159:                                              ; preds = %151
  %160 = load ptr, ptr %10, align 8, !tbaa !24
  %161 = icmp ne ptr %160, null
  br i1 %161, label %162, label %169

162:                                              ; preds = %159
  %163 = load ptr, ptr %7, align 8, !tbaa !26
  %164 = icmp ne ptr %163, null
  br i1 %164, label %165, label %169

165:                                              ; preds = %162
  %166 = load ptr, ptr %7, align 8, !tbaa !26
  %167 = load ptr, ptr %166, align 8, !tbaa !24
  call void @CRYPTO_free(ptr noundef %167, ptr noundef @.str, i32 noundef 576)
  %168 = load ptr, ptr %7, align 8, !tbaa !26
  store ptr null, ptr %168, align 8, !tbaa !24
  br label %169

169:                                              ; preds = %165, %162, %159
  store i32 0, ptr %5, align 4
  store i32 1, ptr %15, align 4
  br label %175

170:                                              ; preds = %151
  br label %171

171:                                              ; preds = %170, %149
  br label %172

172:                                              ; preds = %171, %134, %131
  store i32 1, ptr %5, align 4
  store i32 1, ptr %15, align 4
  br label %175

173:                                              ; preds = %89
  call void @ERR_new()
  call void @ERR_set_debug(ptr noundef @.str, i32 noundef 586, ptr noundef @__func__.BIO_parse_hostserv)
  call void (i32, i32, ptr, ...) @ERR_set_error(i32 noundef 32, i32 noundef 129, ptr noundef null)
  store i32 0, ptr %5, align 4
  store i32 1, ptr %15, align 4
  br label %175

174:                                              ; preds = %99, %45, %24
  call void @ERR_new()
  call void @ERR_set_debug(ptr noundef @.str, i32 noundef 589, ptr noundef @__func__.BIO_parse_hostserv)
  call void (i32, i32, ptr, ...) @ERR_set_error(i32 noundef 32, i32 noundef 130, ptr noundef null)
  store i32 0, ptr %5, align 4
  store i32 1, ptr %15, align 4
  br label %175

175:                                              ; preds = %174, %173, %172, %169, %128, %89
  call void @llvm.lifetime.end.p0(i64 8, ptr %13) #9
  call void @llvm.lifetime.end.p0(i64 8, ptr %12) #9
  call void @llvm.lifetime.end.p0(i64 8, ptr %11) #9
  call void @llvm.lifetime.end.p0(i64 8, ptr %10) #9
  %176 = load i32, ptr %5, align 4
  ret i32 %176
}