; Function Attrs: nounwind uwtable
define range(i32 0, 2) i32 @BIO_parse_hostserv(ptr noundef %0, ptr noundef captures(address_is_null) %1, ptr noundef writeonly captures(address_is_null) %2, i32 noundef %3) local_unnamed_addr #0 {
  %5 = load i8, ptr %0, align 1, !tbaa !3
  %6 = icmp eq i8 %5, 91
  br i1 %6, label %7, label %18

7:                                                ; preds = %4
  %8 = tail call ptr @strchr(ptr noundef nonnull dereferenceable(1) %0, i32 noundef 93) #16
  %9 = icmp eq ptr %8, null
  br i1 %9, label %56, label %10

10:                                               ; preds = %7
  %11 = getelementptr inbounds nuw i8, ptr %0, i64 1
  %12 = ptrtoint ptr %8 to i64
  %13 = ptrtoint ptr %11 to i64
  %14 = sub i64 %12, %13
  %15 = getelementptr inbounds nuw i8, ptr %8, i64 1
  %16 = load i8, ptr %15, align 1, !tbaa !3
  switch i8 %16, label %56 [
    i8 0, label %.thread100
    i8 58, label %.thread87
  ]

.thread87:                                        ; preds = %10
  %17 = getelementptr inbounds nuw i8, ptr %8, i64 2
  br label %.thread106.sink.split

18:                                               ; preds = %4
  %19 = tail call ptr @strrchr(ptr noundef nonnull dereferenceable(1) %0, i32 noundef 58) #16
  %20 = tail call ptr @strchr(ptr noundef nonnull dereferenceable(1) %0, i32 noundef 58) #16
  %.not = icmp eq ptr %20, %19
  br i1 %.not, label %21, label %55

21:                                               ; preds = %18
  %.not75 = icmp eq ptr %19, null
  br i1 %.not75, label %27, label %22

22:                                               ; preds = %21
  %23 = ptrtoint ptr %19 to i64
  %24 = ptrtoint ptr %0 to i64
  %25 = sub i64 %23, %24
  %26 = getelementptr inbounds nuw i8, ptr %20, i64 1
  br label %.thread106.sink.split

27:                                               ; preds = %21
  %28 = icmp eq i32 %3, 0
  %29 = tail call i64 @strlen(ptr noundef nonnull dereferenceable(1) %0) #16
  br i1 %28, label %.thread100, label %.thread106

.thread106.sink.split:                            ; preds = %.thread87, %22
  %.sink = phi ptr [ %26, %22 ], [ %17, %.thread87 ]
  %.06295.ph = phi i64 [ %25, %22 ], [ %14, %.thread87 ]
  %.06593.ph = phi ptr [ %0, %22 ], [ %11, %.thread87 ]
  %30 = tail call i64 @strlen(ptr noundef nonnull dereferenceable(1) %.sink) #16
  br label %.thread106

.thread106:                                       ; preds = %.thread106.sink.split, %27
  %.05899 = phi i64 [ %29, %27 ], [ %30, %.thread106.sink.split ]
  %.05996 = phi ptr [ %0, %27 ], [ %.sink, %.thread106.sink.split ]
  %.06295 = phi i64 [ 0, %27 ], [ %.06295.ph, %.thread106.sink.split ]
  %.06593 = phi ptr [ null, %27 ], [ %.06593.ph, %.thread106.sink.split ]
  %31 = tail call ptr @strchr(ptr noundef nonnull dereferenceable(1) %.05996, i32 noundef 58) #16
  %.not77 = icmp eq ptr %31, null
  br i1 %.not77, label %.thread100, label %56

.thread100:                                       ; preds = %10, %27, %.thread106
  %32 = phi i1 [ true, %.thread106 ], [ false, %27 ], [ false, %10 ]
  %.05898 = phi i64 [ %.05899, %.thread106 ], [ 0, %27 ], [ 0, %10 ]
  %.05997 = phi ptr [ %.05996, %.thread106 ], [ null, %27 ], [ null, %10 ]
  %.06294 = phi i64 [ %.06295, %.thread106 ], [ %29, %27 ], [ %14, %10 ]
  %.06592 = phi ptr [ %.06593, %.thread106 ], [ %0, %27 ], [ %11, %10 ]
  %33 = icmp eq ptr %.06592, null
  %34 = icmp eq ptr %1, null
  %or.cond.not113 = or i1 %34, %33
  br i1 %or.cond.not113, label %43, label %35

35:                                               ; preds = %.thread100
  switch i64 %.06294, label %40 [
    i64 0, label %39
    i64 1, label %36
  ]

36:                                               ; preds = %35
  %37 = load i8, ptr %.06592, align 1, !tbaa !3
  %38 = icmp eq i8 %37, 42
  br i1 %38, label %39, label %40

39:                                               ; preds = %35, %36
  store ptr null, ptr %1, align 8, !tbaa !14
  br label %43

40:                                               ; preds = %35, %36
  %41 = tail call noalias ptr @CRYPTO_strndup(ptr noundef nonnull %.06592, i64 noundef %.06294, ptr noundef nonnull @.str, i32 noundef 563) #15
  store ptr %41, ptr %1, align 8, !tbaa !14
  %42 = icmp eq ptr %41, null
  br i1 %42, label %57, label %43

43:                                               ; preds = %39, %40, %.thread100
  %44 = icmp ne ptr %2, null
  %or.cond3 = and i1 %44, %32
  br i1 %or.cond3, label %45, label %57

45:                                               ; preds = %43
  switch i64 %.05898, label %50 [
    i64 0, label %49
    i64 1, label %46
  ]

46:                                               ; preds = %45
  %47 = load i8, ptr %.05997, align 1, !tbaa !3
  %48 = icmp eq i8 %47, 42
  br i1 %48, label %49, label %50

49:                                               ; preds = %45, %46
  store ptr null, ptr %2, align 8, !tbaa !14
  br label %57

50:                                               ; preds = %45, %46
  %51 = tail call noalias ptr @CRYPTO_strndup(ptr noundef nonnull %.05997, i64 noundef %.05898, ptr noundef nonnull @.str, i32 noundef 573) #15
  store ptr %51, ptr %2, align 8, !tbaa !14
  %52 = icmp ne ptr %51, null
  %brmerge = or i1 %or.cond.not113, %52
  %.mux = zext i1 %52 to i32
  br i1 %brmerge, label %57, label %53

53:                                               ; preds = %50
  %54 = load ptr, ptr %1, align 8, !tbaa !14
  tail call void @CRYPTO_free(ptr noundef %54, ptr noundef nonnull @.str, i32 noundef 576) #15
  store ptr null, ptr %1, align 8, !tbaa !14
  br label %57

55:                                               ; preds = %18
  tail call void @ERR_new() #15
  tail call void @ERR_set_debug(ptr noundef nonnull @.str, i32 noundef 586, ptr noundef nonnull @__func__.BIO_parse_hostserv) #15
  tail call void (i32, i32, ptr, ...) @ERR_set_error(i32 noundef 32, i32 noundef 129, ptr noundef null) #15
  br label %57

56:                                               ; preds = %10, %.thread106, %7
  tail call void @ERR_new() #15
  tail call void @ERR_set_debug(ptr noundef nonnull @.str, i32 noundef 589, ptr noundef nonnull @__func__.BIO_parse_hostserv) #15
  tail call void (i32, i32, ptr, ...) @ERR_set_error(i32 noundef 32, i32 noundef 130, ptr noundef null) #15
  br label %57

57:                                               ; preds = %50, %43, %49, %53, %40, %56, %55
  %.057 = phi i32 [ 0, %56 ], [ 0, %55 ], [ 0, %40 ], [ 0, %53 ], [ 1, %49 ], [ %.mux, %50 ], [ 1, %43 ]
  ret i32 %.057
}